target datalayout = "e-m:e-p270:32:32-p271:32:32-p272:64:64-i64:64-i128:128-f80:128-n8:16:32:64-S128"
target triple = "x86_64-pc-linux-gnu"

%struct.grep_opt = type { ptr, ptr, ptr, ptr, ptr, ptr, i32, i32, i32, i32, i32, i32, i32, i32, i32, i32, i32, i32, i32, i32, i32, i32, i32, i32, i32, i32, i32, i32, i32, i32, i32, i32, [9 x [75 x i8]], i32, i32, i32, i32, i32, i32, i32, ptr, ptr, ptr }

@.str.63 = private unnamed_addr constant [4 x i8] c"\1B[m\00", align 1

; Function Attrs: nounwind uwtable
define internal void @output_color(ptr noundef %0, ptr noundef %1, i64 noundef %2, ptr noundef %3) #0 {
  %5 = alloca ptr, align 8
  %6 = alloca ptr, align 8
  %7 = alloca i64, align 8
  %8 = alloca ptr, align 8
  store ptr %0, ptr %5, align 8, !tbaa !19
  store ptr %1, ptr %6, align 8, !tbaa !18
  store i64 %2, ptr %7, align 8, !tbaa !11
  store ptr %3, ptr %8, align 8, !tbaa !9
  %9 = load ptr, ptr %5, align 8, !tbaa !19
  %10 = getelementptr inbounds nuw %struct.grep_opt, ptr %9, i32 0, i32 25
  %11 = load i32, ptr %10, align 4, !tbaa !32
  %12 = call i32 @want_color_fd(i32 noundef 1, i32 noundef %11)
  %13 = icmp ne i32 %12, 0
  br i1 %13, label %14, label %41

14:                                               ; preds = %4
  %15 = load ptr, ptr %8, align 8, !tbaa !9
  %16 = icmp ne ptr %15, null
  br i1 %16, label %17, label %41

17:                                               ; preds = %14
  %18 = load ptr, ptr %8, align 8, !tbaa !9
  %19 = getelementptr inbounds i8, ptr %18, i64 0
  %20 = load i8, ptr %19, align 1, !tbaa !36
  %21 = sext i8 %20 to i32
  %22 = icmp ne i32 %21, 0
  br i1 %22, label %23, label %41

23:                                               ; preds = %17
  %24 = load ptr, ptr %5, align 8, !tbaa !19
  %25 = getelementptr inbounds nuw %struct.grep_opt, ptr %24, i32 0, i32 41
  %26 = load ptr, ptr %25, align 8, !tbaa !93
  %27 = load ptr, ptr %5, align 8, !tbaa !19
  %28 = load ptr, ptr %8, align 8, !tbaa !9
  %29 = load ptr, ptr %8, align 8, !tbaa !9
  %30 = call i64 @strlen(ptr noundef %29) #12
  call void %26(ptr noundef %27, ptr noundef %28, i64 noundef %30)
  %31 = load ptr, ptr %5, align 8, !tbaa !19
  %32 = getelementptr inbounds nuw %struct.grep_opt, ptr %31, i32 0, i32 41
  %33 = load ptr, ptr %32, align 8, !tbaa !93
  %34 = load ptr, ptr %5, align 8, !tbaa !19
  %35 = load ptr, ptr %6, align 8, !tbaa !18
  %36 = load i64, ptr %7, align 8, !tbaa !11
  call void %33(ptr noundef %34, ptr noundef %35, i64 noundef %36)
  %37 = load ptr, ptr %5, align 8, !tbaa !19
  %38 = getelementptr inbounds nuw %struct.grep_opt, ptr %37, i32 0, i32 41
  %39 = load ptr, ptr %38, align 8, !tbaa !93
  %40 = load ptr, ptr %5, align 8, !tbaa !19
  call void %39(ptr noundef %40, ptr noundef @.str.63, i64 noundef 3)
  br label %48

41:                                               ; preds = %17, %14, %4
  %42 = load ptr, ptr %5, align 8, !tbaa !19
  %43 = getelementptr inbounds nuw %struct.grep_opt, ptr %42, i32 0, i32 41
  %44 = load ptr, ptr %43, align 8, !tbaa !93
  %45 = load ptr, ptr %5, align 8, !tbaa !19
  %46 = load ptr, ptr %6, align 8, !tbaa !18
  %47 = load i64, ptr %7, align 8, !tbaa !11
  call void %44(ptr noundef %45, ptr noundef %46, i64 noundef %47)
  br label %48

48:                                               ; preds = %41, %23
  ret void
}