; Function Attrs: nounwind uwtable
define internal fastcc void @output_color(ptr noundef %0, ptr noundef %1, i64 noundef %2, ptr noundef %3) unnamed_addr #0 {
  %5 = getelementptr inbounds nuw i8, ptr %0, i64 124
  %6 = load i32, ptr %5, align 4, !tbaa !22
  %7 = tail call i32 @want_color_fd(i32 noundef 1, i32 noundef %6) #18
  %8 = icmp ne i32 %7, 0
  %9 = icmp ne ptr %3, null
  %or.cond = and i1 %9, %8
  br i1 %or.cond, label %10, label %18

10:                                               ; preds = %4
  %11 = load i8, ptr %3, align 1, !tbaa !23
  %.not = icmp eq i8 %11, 0
  br i1 %.not, label %18, label %12

12:                                               ; preds = %10
  %13 = getelementptr inbounds nuw i8, ptr %0, i64 864
  %14 = load ptr, ptr %13, align 8, !tbaa !80
  %15 = tail call i64 @strlen(ptr noundef nonnull dereferenceable(1) %3) #19
  tail call void %14(ptr noundef nonnull %0, ptr noundef nonnull %3, i64 noundef %15) #18
  %16 = load ptr, ptr %13, align 8, !tbaa !80
  tail call void %16(ptr noundef nonnull %0, ptr noundef %1, i64 noundef %2) #18
  %17 = load ptr, ptr %13, align 8, !tbaa !80
  tail call void %17(ptr noundef nonnull %0, ptr noundef nonnull @.str.63, i64 noundef 3) #18
  br label %21

18:                                               ; preds = %10, %4
  %19 = getelementptr inbounds nuw i8, ptr %0, i64 864
  %20 = load ptr, ptr %19, align 8, !tbaa !80
  tail call void %20(ptr noundef nonnull %0, ptr noundef %1, i64 noundef %2) #18
  br label %21

21:                                               ; preds = %18, %12
  ret void
}